; Function Attrs: nounwind uwtable
define internal range(i32 0, 2) i32 @test_cipherbyname() #0 {
  %1 = tail call ptr @ossl_namemap_stored(ptr noundef null) #2
  %2 = tail call i32 @test_ptr(ptr noundef nonnull @.str.7, i32 noundef 111, ptr noundef nonnull @.str.15, ptr noundef %1) #2
  %.not = icmp eq i32 %2, 0
  br i1 %.not, label %15, label %3

3:                                                ; preds = %0
  %4 = tail call i32 @ossl_namemap_add_name(ptr noundef %1, i32 noundef 0, ptr noundef nonnull @.str.34) #2
  %5 = tail call i32 @test_int_ne(ptr noundef nonnull @.str.7, i32 noundef 114, ptr noundef nonnull @.str.30, ptr noundef nonnull @.str.13, i32 noundef %4, i32 noundef 0) #2
  %.not9 = icmp eq i32 %5, 0
  br i1 %.not9, label %15, label %6

6:                                                ; preds = %3
  %7 = tail call i32 @ossl_namemap_add_name(ptr noundef %1, i32 noundef %4, ptr noundef nonnull @.str.36) #2
  %8 = tail call i32 @test_int_eq(ptr noundef nonnull @.str.7, i32 noundef 116, ptr noundef nonnull @.str.35, ptr noundef nonnull @.str.30, i32 noundef %7, i32 noundef %4) #2
  %.not10 = icmp eq i32 %8, 0
  br i1 %.not10, label %15, label %9

9:                                                ; preds = %6
  %10 = tail call ptr @EVP_get_cipherbyname(ptr noundef nonnull @.str.34) #2
  %11 = tail call i32 @test_ptr(ptr noundef nonnull @.str.7, i32 noundef 120, ptr noundef nonnull @.str.37, ptr noundef %10) #2
  %.not11 = icmp eq i32 %11, 0
  br i1 %.not11, label %15, label %12

12:                                               ; preds = %9
  %13 = tail call ptr @EVP_get_cipherbyname(ptr noundef nonnull @.str.36) #2
  %14 = tail call i32 @test_ptr_eq(ptr noundef nonnull @.str.7, i32 noundef 123, ptr noundef nonnull @.str.37, ptr noundef nonnull @.str.36, ptr noundef %10, ptr noundef %13) #2
  %.not12 = icmp ne i32 %14, 0
  %. = zext i1 %.not12 to i32
  br label %15

15:                                               ; preds = %12, %9, %6, %3, %0
  %.0 = phi i32 [ 0, %0 ], [ 0, %3 ], [ 0, %6 ], [ 0, %9 ], [ %., %12 ]
  ret i32 %.0
}